; Function Attrs: mustprogress nofree norecurse nosync nounwind willreturn memory(argmem: read) uwtable
define hidden noundef i32 @_ZNK19OpenColorIO_v2_4dev9CDLOpData12getDirectionEv(ptr nocapture noundef nonnull readonly align 8 dereferenceable(256) %this) local_unnamed_addr #8 align 2 {
entry:
  %m_style = getelementptr inbounds i8, ptr %this, i64 168
  %0 = load i32, ptr %m_style, align 8
  %1 = add i32 %0, -1
  %switch.and = and i32 %1, -3
  %switch.selectcmp = icmp eq i32 %switch.and, 0
  %2 = zext i1 %switch.selectcmp to i32
  ret i32 %2
}